; Function Attrs: nounwind uwtable
define internal ptr @wrapperdescr_get_text_signature(ptr noundef readonly captures(none) %0, ptr readnone captures(none) %1) #0 {
  %3 = getelementptr inbounds nuw i8, ptr %0, i64 40
  %4 = load ptr, ptr %3, align 8, !tbaa !48
  %5 = load ptr, ptr %4, align 8, !tbaa !59
  %6 = getelementptr inbounds nuw i8, ptr %4, i64 32
  %7 = load ptr, ptr %6, align 8, !tbaa !163
  %8 = tail call ptr @_PyType_GetTextSignatureFromInternalDoc(ptr noundef %5, ptr noundef %7, i32 noundef 0) #9
  ret ptr %8
}